target datalayout = "e-m:e-p270:32:32-p271:32:32-p272:64:64-i64:64-i128:128-f80:128-n8:16:32:64-S128"
target triple = "x86_64-pc-linux-gnu"

%"class.std::filesystem::__cxx11::path" = type { %"class.std::__cxx11::basic_string", %"struct.std::filesystem::__cxx11::path::_List" }
%"class.std::__cxx11::basic_string" = type { %"struct.std::__cxx11::basic_string<char>::_Alloc_hider", i64, %union.anon }
%"struct.std::__cxx11::basic_string<char>::_Alloc_hider" = type { ptr }
%union.anon = type { i64, [8 x i8] }
%"struct.std::filesystem::__cxx11::path::_List" = type { %"class.std::unique_ptr" }
%"class.std::unique_ptr" = type { %"struct.std::__uniq_ptr_data" }
%"struct.std::__uniq_ptr_data" = type { %"class.std::__uniq_ptr_impl" }
%"class.std::__uniq_ptr_impl" = type { %"class.std::tuple" }
%"class.std::tuple" = type { %"struct.std::_Tuple_impl" }
%"struct.std::_Tuple_impl" = type { %"struct.std::_Head_base.1" }
%"struct.std::_Head_base.1" = type { ptr }

@.str = private unnamed_addr constant [2 x i8] c"V\00", align 1
@.str.1 = private unnamed_addr constant [2 x i8] c"N\00", align 1
@.str.2 = private unnamed_addr constant [7 x i8] c"isuppz\00", align 1
@.str.3 = private unnamed_addr constant [135 x i8] c"generated/home/dtcxzyw/WorkSpace/Projects/compilers/llvm-opt-benchmark/bench/gromacs/gromacs/src/gromacs/linearalgebra/eigensolver.cpp\00", align 1
@.str.4 = private unnamed_addr constant [2 x i8] c"I\00", align 1
@.str.5 = private unnamed_addr constant [2 x i8] c"L\00", align 1
@.str.6 = private unnamed_addr constant [42 x i8] c"Internal error in LAPACK diagonalization.\00", align 1
@.str.7 = private unnamed_addr constant [5 x i8] c"work\00", align 1
@.str.8 = private unnamed_addr constant [6 x i8] c"iwork\00", align 1

; Function Attrs: inlinehint mustprogress uwtable
define internal void @_ZL14gmx_sfree_implIfEvPKcS1_iPT_(ptr noundef %0, ptr noundef %1, i32 noundef %2, ptr noundef %3) #2 {
  %5 = alloca ptr, align 8
  %6 = alloca ptr, align 8
  %7 = alloca i32, align 4
  %8 = alloca ptr, align 8
  store ptr %0, ptr %5, align 8, !tbaa !10
  store ptr %1, ptr %6, align 8, !tbaa !10
  store i32 %2, ptr %7, align 4, !tbaa !8
  store ptr %3, ptr %8, align 8, !tbaa !3
  %9 = load ptr, ptr %5, align 8, !tbaa !10
  %10 = load ptr, ptr %6, align 8, !tbaa !10
  %11 = load i32, ptr %7, align 4, !tbaa !8
  %12 = load ptr, ptr %8, align 8, !tbaa !3
  call void @_Z9save_freePKcS0_iPv(ptr noundef %9, ptr noundef %10, i32 noundef %11, ptr noundef %12)
  ret void
}

; Function Attrs: inlinehint mustprogress uwtable
define internal void @_ZL13gmx_snew_implIfEvPKcS1_iRPT_m(ptr noundef %0, ptr noundef %1, i32 noundef %2, ptr noundef nonnull align 8 dereferenceable(8) %3, i64 noundef %4) #2 {
  %6 = alloca ptr, align 8
  %7 = alloca ptr, align 8
  %8 = alloca i32, align 4
  %9 = alloca ptr, align 8
  %10 = alloca i64, align 8
  store ptr %0, ptr %6, align 8, !tbaa !10
  store ptr %1, ptr %7, align 8, !tbaa !10
  store i32 %2, ptr %8, align 4, !tbaa !8
  store ptr %3, ptr %9, align 8, !tbaa !25
  store i64 %4, ptr %10, align 8, !tbaa !19
  %11 = load ptr, ptr %6, align 8, !tbaa !10
  %12 = load ptr, ptr %7, align 8, !tbaa !10
  %13 = load i32, ptr %8, align 4, !tbaa !8
  %14 = load i64, ptr %10, align 8, !tbaa !19
  %15 = call noundef ptr @_Z11save_callocPKcS0_imm(ptr noundef %11, ptr noundef %12, i32 noundef %13, i64 noundef %14, i64 noundef 4)
  %16 = load ptr, ptr %9, align 8, !tbaa !25
  store ptr %15, ptr %16, align 8, !tbaa !3
  ret void
}

; Function Attrs: inlinehint mustprogress uwtable
define internal void @_ZL14gmx_sfree_implIiEvPKcS1_iPT_(ptr noundef %0, ptr noundef %1, i32 noundef %2, ptr noundef %3) #2 {
  %5 = alloca ptr, align 8
  %6 = alloca ptr, align 8
  %7 = alloca i32, align 4
  %8 = alloca ptr, align 8
  store ptr %0, ptr %5, align 8, !tbaa !10
  store ptr %1, ptr %6, align 8, !tbaa !10
  store i32 %2, ptr %7, align 4, !tbaa !8
  store ptr %3, ptr %8, align 8, !tbaa !14
  %9 = load ptr, ptr %5, align 8, !tbaa !10
  %10 = load ptr, ptr %6, align 8, !tbaa !10
  %11 = load i32, ptr %7, align 4, !tbaa !8
  %12 = load ptr, ptr %8, align 8, !tbaa !14
  call void @_Z9save_freePKcS0_iPv(ptr noundef %9, ptr noundef %10, i32 noundef %11, ptr noundef %12)
  ret void
}

; Function Attrs: inlinehint mustprogress uwtable
define internal void @_ZL13gmx_snew_implIiEvPKcS1_iRPT_m(ptr noundef %0, ptr noundef %1, i32 noundef %2, ptr noundef nonnull align 8 dereferenceable(8) %3, i64 noundef %4) #2 {
  %6 = alloca ptr, align 8
  %7 = alloca ptr, align 8
  %8 = alloca i32, align 4
  %9 = alloca ptr, align 8
  %10 = alloca i64, align 8
  store ptr %0, ptr %6, align 8, !tbaa !10
  store ptr %1, ptr %7, align 8, !tbaa !10
  store i32 %2, ptr %8, align 4, !tbaa !8
  store ptr %3, ptr %9, align 8, !tbaa !16
  store i64 %4, ptr %10, align 8, !tbaa !19
  %11 = load ptr, ptr %6, align 8, !tbaa !10
  %12 = load ptr, ptr %7, align 8, !tbaa !10
  %13 = load i32, ptr %8, align 4, !tbaa !8
  %14 = load i64, ptr %10, align 8, !tbaa !19
  %15 = call noundef ptr @_Z11save_callocPKcS0_imm(ptr noundef %11, ptr noundef %12, i32 noundef %13, i64 noundef %14, i64 noundef 4)
  %16 = load ptr, ptr %9, align 8, !tbaa !16
  store ptr %15, ptr %16, align 8, !tbaa !14
  ret void
}

; Function Attrs: mustprogress uwtable
define void @_Z11eigensolverPfiiiS_S_(ptr noundef %0, i32 noundef %1, i32 noundef %2, i32 noundef %3, ptr noundef %4, ptr noundef %5) #0 personality ptr @__gxx_personality_v0 {
  %7 = alloca ptr, align 8
  %8 = alloca i32, align 4
  %9 = alloca i32, align 4
  %10 = alloca i32, align 4
  %11 = alloca ptr, align 8
  %12 = alloca ptr, align 8
  %13 = alloca ptr, align 8
  %14 = alloca i32, align 4
  %15 = alloca i32, align 4
  %16 = alloca i32, align 4
  %17 = alloca i32, align 4
  %18 = alloca i32, align 4
  %19 = alloca float, align 4
  %20 = alloca float, align 4
  %21 = alloca ptr, align 8
  %22 = alloca ptr, align 8
  %23 = alloca float, align 4
  %24 = alloca float, align 4
  %25 = alloca ptr, align 8
  %26 = alloca %"class.std::filesystem::__cxx11::path", align 8
  %27 = alloca ptr, align 8
  %28 = alloca i32, align 4
  %29 = alloca %"class.std::filesystem::__cxx11::path", align 8
  store ptr %0, ptr %7, align 8, !tbaa !3
  store i32 %1, ptr %8, align 4, !tbaa !8
  store i32 %2, ptr %9, align 4, !tbaa !8
  store i32 %3, ptr %10, align 4, !tbaa !8
  store ptr %4, ptr %11, align 8, !tbaa !3
  store ptr %5, ptr %12, align 8, !tbaa !3
  call void @llvm.lifetime.start.p0(i64 8, ptr %13) #12
  call void @llvm.lifetime.start.p0(i64 4, ptr %14) #12
  call void @llvm.lifetime.start.p0(i64 4, ptr %15) #12
  call void @llvm.lifetime.start.p0(i64 4, ptr %16) #12
  call void @llvm.lifetime.start.p0(i64 4, ptr %17) #12
  call void @llvm.lifetime.start.p0(i64 4, ptr %18) #12
  call void @llvm.lifetime.start.p0(i64 4, ptr %19) #12
  call void @llvm.lifetime.start.p0(i64 4, ptr %20) #12
  call void @llvm.lifetime.start.p0(i64 8, ptr %21) #12
  call void @llvm.lifetime.start.p0(i64 8, ptr %22) #12
  call void @llvm.lifetime.start.p0(i64 4, ptr %23) #12
  call void @llvm.lifetime.start.p0(i64 4, ptr %24) #12
  call void @llvm.lifetime.start.p0(i64 8, ptr %25) #12
  %30 = load i32, ptr %9, align 4, !tbaa !8
  %31 = icmp slt i32 %30, 0
  br i1 %31, label %32, label %33

32:                                               ; preds = %6
  store i32 0, ptr %9, align 4, !tbaa !8
  br label %33

33:                                               ; preds = %32, %6
  %34 = load i32, ptr %10, align 4, !tbaa !8
  %35 = load i32, ptr %8, align 4, !tbaa !8
  %36 = icmp sge i32 %34, %35
  br i1 %36, label %37, label %40

37:                                               ; preds = %33
  %38 = load i32, ptr %8, align 4, !tbaa !8
  %39 = sub nsw i32 %38, 1
  store i32 %39, ptr %10, align 4, !tbaa !8
  br label %40

40:                                               ; preds = %37, %33
  %41 = load ptr, ptr %12, align 8, !tbaa !3
  %42 = icmp ne ptr %41, null
  br i1 %42, label %43, label %44

43:                                               ; preds = %40
  br label %45

44:                                               ; preds = %40
  br label %45

45:                                               ; preds = %44, %43
  %46 = phi ptr [ @.str, %43 ], [ @.str.1, %44 ]
  %47 = getelementptr inbounds [2 x i8], ptr %46, i64 0, i64 0
  store ptr %47, ptr %25, align 8, !tbaa !10
  %48 = load i32, ptr %8, align 4, !tbaa !8
  %49 = mul nsw i32 2, %48
  %50 = sext i32 %49 to i64
  call void @_ZL13gmx_snew_implIiEvPKcS1_iRPT_m(ptr noundef @.str.2, ptr noundef @.str.3, i32 noundef 79, ptr noundef nonnull align 8 dereferenceable(8) %13, i64 noundef %50)
  store float 0.000000e+00, ptr %24, align 4, !tbaa !12
  store float 0.000000e+00, ptr %23, align 4, !tbaa !12
  store i32 -1, ptr %14, align 4, !tbaa !8
  store i32 -1, ptr %15, align 4, !tbaa !8
  store float 0.000000e+00, ptr %20, align 4, !tbaa !12
  %51 = load i32, ptr %9, align 4, !tbaa !8
  %52 = add nsw i32 %51, 1
  store i32 %52, ptr %9, align 4, !tbaa !8
  %53 = load i32, ptr %10, align 4, !tbaa !8
  %54 = add nsw i32 %53, 1
  store i32 %54, ptr %10, align 4, !tbaa !8
  %55 = load ptr, ptr %25, align 8, !tbaa !10
  %56 = load ptr, ptr %7, align 8, !tbaa !3
  %57 = load ptr, ptr %11, align 8, !tbaa !3
  %58 = load ptr, ptr %12, align 8, !tbaa !3
  %59 = load ptr, ptr %13, align 8, !tbaa !14
  call void @ssyevr_(ptr noundef %55, ptr noundef @.str.4, ptr noundef @.str.5, ptr noundef %8, ptr noundef %56, ptr noundef %8, ptr noundef %23, ptr noundef %24, ptr noundef %9, ptr noundef %10, ptr noundef %20, ptr noundef %16, ptr noundef %57, ptr noundef %58, ptr noundef %8, ptr noundef %59, ptr noundef %19, ptr noundef %14, ptr noundef %17, ptr noundef %15, ptr noundef %18)
  %60 = load i32, ptr %18, align 4, !tbaa !8
  %61 = icmp ne i32 %60, 0
  br i1 %61, label %62, label %69

62:                                               ; preds = %45
  %63 = load ptr, ptr %13, align 8, !tbaa !14
  call void @_ZL14gmx_sfree_implIiEvPKcS1_iPT_(ptr noundef @.str.2, ptr noundef @.str.3, i32 noundef 144, ptr noundef %63)
  call void @llvm.lifetime.start.p0(i64 40, ptr %26) #12
  call void @_ZNSt10filesystem7__cxx114pathC2IA135_cS1_EERKT_NS1_6formatE(ptr noundef nonnull align 8 dereferenceable(40) %26, ptr noundef nonnull align 1 dereferenceable(135) @.str.3, i8 noundef zeroext 2)
  invoke void (i32, ptr, i32, ptr, ...) @_Z9gmx_fataliRKNSt10filesystem7__cxx114pathEiPKcz(i32 noundef 0, ptr noundef nonnull align 8 dereferenceable(40) %26, i32 noundef 145, ptr noundef @.str.6) #13
          to label %64 unwind label %65

64:                                               ; preds = %62
  unreachable

65:                                               ; preds = %62
  %66 = landingpad { ptr, i32 }
          cleanup
  %67 = extractvalue { ptr, i32 } %66, 0
  store ptr %67, ptr %27, align 8
  %68 = extractvalue { ptr, i32 } %66, 1
  store i32 %68, ptr %28, align 4
  call void @_ZNSt10filesystem7__cxx114pathD2Ev(ptr noundef nonnull align 8 dereferenceable(40) %26) #12
  call void @llvm.lifetime.end.p0(i64 40, ptr %26) #12
  br label %96

69:                                               ; preds = %45
  %70 = load float, ptr %19, align 4, !tbaa !12
  %71 = fptosi float %70 to i32
  store i32 %71, ptr %14, align 4, !tbaa !8
  %72 = load i32, ptr %17, align 4, !tbaa !8
  store i32 %72, ptr %15, align 4, !tbaa !8
  %73 = load i32, ptr %14, align 4, !tbaa !8
  %74 = sext i32 %73 to i64
  call void @_ZL13gmx_snew_implIfEvPKcS1_iRPT_m(ptr noundef @.str.7, ptr noundef @.str.3, i32 noundef 151, ptr noundef nonnull align 8 dereferenceable(8) %22, i64 noundef %74)
  %75 = load i32, ptr %15, align 4, !tbaa !8
  %76 = sext i32 %75 to i64
  call void @_ZL13gmx_snew_implIiEvPKcS1_iRPT_m(ptr noundef @.str.8, ptr noundef @.str.3, i32 noundef 152, ptr noundef nonnull align 8 dereferenceable(8) %21, i64 noundef %76)
  store float 0.000000e+00, ptr %20, align 4, !tbaa !12
  %77 = load ptr, ptr %25, align 8, !tbaa !10
  %78 = load ptr, ptr %7, align 8, !tbaa !3
  %79 = load ptr, ptr %11, align 8, !tbaa !3
  %80 = load ptr, ptr %12, align 8, !tbaa !3
  %81 = load ptr, ptr %13, align 8, !tbaa !14
  %82 = load ptr, ptr %22, align 8, !tbaa !3
  %83 = load ptr, ptr %21, align 8, !tbaa !14
  call void @ssyevr_(ptr noundef %77, ptr noundef @.str.4, ptr noundef @.str.5, ptr noundef %8, ptr noundef %78, ptr noundef %8, ptr noundef %23, ptr noundef %24, ptr noundef %9, ptr noundef %10, ptr noundef %20, ptr noundef %16, ptr noundef %79, ptr noundef %80, ptr noundef %8, ptr noundef %81, ptr noundef %82, ptr noundef %14, ptr noundef %83, ptr noundef %15, ptr noundef %18)
  %84 = load ptr, ptr %13, align 8, !tbaa !14
  call void @_ZL14gmx_sfree_implIiEvPKcS1_iPT_(ptr noundef @.str.2, ptr noundef @.str.3, i32 noundef 204, ptr noundef %84)
  %85 = load ptr, ptr %22, align 8, !tbaa !3
  call void @_ZL14gmx_sfree_implIfEvPKcS1_iPT_(ptr noundef @.str.7, ptr noundef @.str.3, i32 noundef 205, ptr noundef %85)
  %86 = load ptr, ptr %21, align 8, !tbaa !14
  call void @_ZL14gmx_sfree_implIiEvPKcS1_iPT_(ptr noundef @.str.8, ptr noundef @.str.3, i32 noundef 206, ptr noundef %86)
  %87 = load i32, ptr %18, align 4, !tbaa !8
  %88 = icmp ne i32 %87, 0
  br i1 %88, label %89, label %95

89:                                               ; preds = %69
  call void @llvm.lifetime.start.p0(i64 40, ptr %29) #12
  call void @_ZNSt10filesystem7__cxx114pathC2IA135_cS1_EERKT_NS1_6formatE(ptr noundef nonnull align 8 dereferenceable(40) %29, ptr noundef nonnull align 1 dereferenceable(135) @.str.3, i8 noundef zeroext 2)
  invoke void (i32, ptr, i32, ptr, ...) @_Z9gmx_fataliRKNSt10filesystem7__cxx114pathEiPKcz(i32 noundef 0, ptr noundef nonnull align 8 dereferenceable(40) %29, i32 noundef 210, ptr noundef @.str.6) #13
          to label %90 unwind label %91

90:                                               ; preds = %89
  unreachable

91:                                               ; preds = %89
  %92 = landingpad { ptr, i32 }
          cleanup
  %93 = extractvalue { ptr, i32 } %92, 0
  store ptr %93, ptr %27, align 8
  %94 = extractvalue { ptr, i32 } %92, 1
  store i32 %94, ptr %28, align 4
  call void @_ZNSt10filesystem7__cxx114pathD2Ev(ptr noundef nonnull align 8 dereferenceable(40) %29) #12
  call void @llvm.lifetime.end.p0(i64 40, ptr %29) #12
  br label %96

95:                                               ; preds = %69
  call void @llvm.lifetime.end.p0(i64 8, ptr %25) #12
  call void @llvm.lifetime.end.p0(i64 4, ptr %24) #12
  call void @llvm.lifetime.end.p0(i64 4, ptr %23) #12
  call void @llvm.lifetime.end.p0(i64 8, ptr %22) #12
  call void @llvm.lifetime.end.p0(i64 8, ptr %21) #12
  call void @llvm.lifetime.end.p0(i64 4, ptr %20) #12
  call void @llvm.lifetime.end.p0(i64 4, ptr %19) #12
  call void @llvm.lifetime.end.p0(i64 4, ptr %18) #12
  call void @llvm.lifetime.end.p0(i64 4, ptr %17) #12
  call void @llvm.lifetime.end.p0(i64 4, ptr %16) #12
  call void @llvm.lifetime.end.p0(i64 4, ptr %15) #12
  call void @llvm.lifetime.end.p0(i64 4, ptr %14) #12
  call void @llvm.lifetime.end.p0(i64 8, ptr %13) #12
  ret void

96:                                               ; preds = %91, %65
  call void @llvm.lifetime.end.p0(i64 8, ptr %25) #12
  call void @llvm.lifetime.end.p0(i64 4, ptr %24) #12
  call void @llvm.lifetime.end.p0(i64 4, ptr %23) #12
  call void @llvm.lifetime.end.p0(i64 8, ptr %22) #12
  call void @llvm.lifetime.end.p0(i64 8, ptr %21) #12
  call void @llvm.lifetime.end.p0(i64 4, ptr %20) #12
  call void @llvm.lifetime.end.p0(i64 4, ptr %19) #12
  call void @llvm.lifetime.end.p0(i64 4, ptr %18) #12
  call void @llvm.lifetime.end.p0(i64 4, ptr %17) #12
  call void @llvm.lifetime.end.p0(i64 4, ptr %16) #12
  call void @llvm.lifetime.end.p0(i64 4, ptr %15) #12
  call void @llvm.lifetime.end.p0(i64 4, ptr %14) #12
  call void @llvm.lifetime.end.p0(i64 8, ptr %13) #12
  br label %97

97:                                               ; preds = %96
  %98 = load ptr, ptr %27, align 8
  %99 = load i32, ptr %28, align 4
  %100 = insertvalue { ptr, i32 } poison, ptr %98, 0
  %101 = insertvalue { ptr, i32 } %100, i32 %99, 1
  resume { ptr, i32 } %101
}