; Function Attrs: mustprogress uwtable
define void @_Z11eigensolverPfiiiS_S_(ptr noundef %0, i32 noundef %1, i32 noundef %2, i32 noundef %3, ptr noundef %4, ptr noundef %5) local_unnamed_addr #0 personality ptr @__gxx_personality_v0 {
  %7 = alloca i32, align 4
  %8 = alloca i32, align 4
  %9 = alloca i32, align 4
  %10 = alloca i32, align 4
  %11 = alloca i32, align 4
  %12 = alloca i32, align 4
  %13 = alloca i32, align 4
  %14 = alloca i32, align 4
  %15 = alloca float, align 4
  %16 = alloca float, align 4
  %17 = alloca float, align 4
  %18 = alloca float, align 4
  %19 = alloca %"class.std::filesystem::__cxx11::path", align 8
  %20 = alloca %"class.std::filesystem::__cxx11::path", align 8
  store i32 %1, ptr %7, align 4, !tbaa !3
  call void @llvm.lifetime.start.p0(i64 4, ptr nonnull %10) #15
  call void @llvm.lifetime.start.p0(i64 4, ptr nonnull %11) #15
  call void @llvm.lifetime.start.p0(i64 4, ptr nonnull %12) #15
  call void @llvm.lifetime.start.p0(i64 4, ptr nonnull %13) #15
  call void @llvm.lifetime.start.p0(i64 4, ptr nonnull %14) #15
  call void @llvm.lifetime.start.p0(i64 4, ptr nonnull %15) #15
  call void @llvm.lifetime.start.p0(i64 4, ptr nonnull %16) #15
  call void @llvm.lifetime.start.p0(i64 4, ptr nonnull %17) #15
  call void @llvm.lifetime.start.p0(i64 4, ptr nonnull %18) #15
  %spec.select = tail call i32 @llvm.smax.i32(i32 %2, i32 0)
  %.not = icmp slt i32 %3, %1
  %.not12 = icmp eq ptr %5, null
  %.str..str.1 = select i1 %.not12, ptr @.str.1, ptr @.str
  %21 = shl nsw i32 %1, 1
  %22 = sext i32 %21 to i64
  %23 = tail call noundef ptr @_Z11save_callocPKcS0_imm(ptr noundef nonnull @.str.2, ptr noundef nonnull @.str.3, i32 noundef 79, i64 noundef range(i64 -2147483648, 2147483648) %22, i64 noundef 4)
  store float 0.000000e+00, ptr %18, align 4, !tbaa !7
  store float 0.000000e+00, ptr %17, align 4, !tbaa !7
  store i32 -1, ptr %10, align 4, !tbaa !3
  store i32 -1, ptr %11, align 4, !tbaa !3
  store float 0.000000e+00, ptr %16, align 4, !tbaa !7
  %24 = add nuw nsw i32 %spec.select, 1
  store i32 %24, ptr %8, align 4, !tbaa !3
  %25 = add nsw i32 %3, 1
  %26 = select i1 %.not, i32 %25, i32 %1
  store i32 %26, ptr %9, align 4, !tbaa !3
  call void @ssyevr_(ptr noundef nonnull %.str..str.1, ptr noundef nonnull @.str.4, ptr noundef nonnull @.str.5, ptr noundef nonnull %7, ptr noundef %0, ptr noundef nonnull %7, ptr noundef nonnull %17, ptr noundef nonnull %18, ptr noundef nonnull %8, ptr noundef nonnull %9, ptr noundef nonnull %16, ptr noundef nonnull %12, ptr noundef %4, ptr noundef %5, ptr noundef nonnull %7, ptr noundef %23, ptr noundef nonnull %15, ptr noundef nonnull %10, ptr noundef nonnull %13, ptr noundef nonnull %11, ptr noundef nonnull %14)
  %27 = load i32, ptr %14, align 4, !tbaa !3
  %.not13 = icmp eq i32 %27, 0
  br i1 %.not13, label %32, label %28

28:                                               ; preds = %6
  call void @_Z9save_freePKcS0_iPv(ptr noundef nonnull @.str.2, ptr noundef nonnull @.str.3, i32 noundef 144, ptr noundef %23)
  call void @llvm.lifetime.start.p0(i64 40, ptr nonnull %19) #15
  call void @_ZNSt10filesystem7__cxx114pathC2IA135_cS1_EERKT_NS1_6formatE(ptr noundef nonnull align 8 dereferenceable(40) %19, ptr noundef nonnull align 1 dereferenceable(135) @.str.3, i8 noundef zeroext 2)
  invoke void (i32, ptr, i32, ptr, ...) @_Z9gmx_fataliRKNSt10filesystem7__cxx114pathEiPKcz(i32 noundef 0, ptr noundef nonnull align 8 dereferenceable(40) %19, i32 noundef 145, ptr noundef nonnull @.str.6) #16
          to label %29 unwind label %30

29:                                               ; preds = %28
  unreachable

30:                                               ; preds = %28
  %31 = landingpad { ptr, i32 }
          cleanup
  call void @_ZNSt10filesystem7__cxx114pathD2Ev(ptr noundef nonnull align 8 dereferenceable(40) %19) #15
  call void @llvm.lifetime.end.p0(i64 40, ptr nonnull %19) #15
  br label %47

32:                                               ; preds = %6
  %33 = load float, ptr %15, align 4, !tbaa !7
  %34 = fptosi float %33 to i32
  store i32 %34, ptr %10, align 4, !tbaa !3
  %35 = load i32, ptr %13, align 4, !tbaa !3
  store i32 %35, ptr %11, align 4, !tbaa !3
  %36 = sext i32 %34 to i64
  %37 = call noundef ptr @_Z11save_callocPKcS0_imm(ptr noundef nonnull @.str.7, ptr noundef nonnull @.str.3, i32 noundef 151, i64 noundef range(i64 -2147483648, 2147483648) %36, i64 noundef 4)
  %38 = load i32, ptr %11, align 4, !tbaa !3
  %39 = sext i32 %38 to i64
  %40 = call noundef ptr @_Z11save_callocPKcS0_imm(ptr noundef nonnull @.str.8, ptr noundef nonnull @.str.3, i32 noundef 152, i64 noundef range(i64 -2147483648, 2147483648) %39, i64 noundef 4)
  store float 0.000000e+00, ptr %16, align 4, !tbaa !7
  call void @ssyevr_(ptr noundef nonnull %.str..str.1, ptr noundef nonnull @.str.4, ptr noundef nonnull @.str.5, ptr noundef nonnull %7, ptr noundef %0, ptr noundef nonnull %7, ptr noundef nonnull %17, ptr noundef nonnull %18, ptr noundef nonnull %8, ptr noundef nonnull %9, ptr noundef nonnull %16, ptr noundef nonnull %12, ptr noundef %4, ptr noundef %5, ptr noundef nonnull %7, ptr noundef %23, ptr noundef %37, ptr noundef nonnull %10, ptr noundef %40, ptr noundef nonnull %11, ptr noundef nonnull %14)
  call void @_Z9save_freePKcS0_iPv(ptr noundef nonnull @.str.2, ptr noundef nonnull @.str.3, i32 noundef 204, ptr noundef %23)
  call void @_Z9save_freePKcS0_iPv(ptr noundef nonnull @.str.7, ptr noundef nonnull @.str.3, i32 noundef 205, ptr noundef %37)
  call void @_Z9save_freePKcS0_iPv(ptr noundef nonnull @.str.8, ptr noundef nonnull @.str.3, i32 noundef 206, ptr noundef %40)
  %41 = load i32, ptr %14, align 4, !tbaa !3
  %.not14 = icmp eq i32 %41, 0
  br i1 %.not14, label %46, label %42

42:                                               ; preds = %32
  call void @llvm.lifetime.start.p0(i64 40, ptr nonnull %20) #15
  call void @_ZNSt10filesystem7__cxx114pathC2IA135_cS1_EERKT_NS1_6formatE(ptr noundef nonnull align 8 dereferenceable(40) %20, ptr noundef nonnull align 1 dereferenceable(135) @.str.3, i8 noundef zeroext 2)
  invoke void (i32, ptr, i32, ptr, ...) @_Z9gmx_fataliRKNSt10filesystem7__cxx114pathEiPKcz(i32 noundef 0, ptr noundef nonnull align 8 dereferenceable(40) %20, i32 noundef 210, ptr noundef nonnull @.str.6) #16
          to label %43 unwind label %44

43:                                               ; preds = %42
  unreachable

44:                                               ; preds = %42
  %45 = landingpad { ptr, i32 }
          cleanup
  call void @_ZNSt10filesystem7__cxx114pathD2Ev(ptr noundef nonnull align 8 dereferenceable(40) %20) #15
  call void @llvm.lifetime.end.p0(i64 40, ptr nonnull %20) #15
  br label %47

46:                                               ; preds = %32
  call void @llvm.lifetime.end.p0(i64 4, ptr nonnull %18) #15
  call void @llvm.lifetime.end.p0(i64 4, ptr nonnull %17) #15
  call void @llvm.lifetime.end.p0(i64 4, ptr nonnull %16) #15
  call void @llvm.lifetime.end.p0(i64 4, ptr nonnull %15) #15
  call void @llvm.lifetime.end.p0(i64 4, ptr nonnull %14) #15
  call void @llvm.lifetime.end.p0(i64 4, ptr nonnull %13) #15
  call void @llvm.lifetime.end.p0(i64 4, ptr nonnull %12) #15
  call void @llvm.lifetime.end.p0(i64 4, ptr nonnull %11) #15
  call void @llvm.lifetime.end.p0(i64 4, ptr nonnull %10) #15
  ret void

47:                                               ; preds = %44, %30
  %.pn = phi { ptr, i32 } [ %31, %30 ], [ %45, %44 ]
  call void @llvm.lifetime.end.p0(i64 4, ptr nonnull %18) #15
  call void @llvm.lifetime.end.p0(i64 4, ptr nonnull %17) #15
  call void @llvm.lifetime.end.p0(i64 4, ptr nonnull %16) #15
  call void @llvm.lifetime.end.p0(i64 4, ptr nonnull %15) #15
  call void @llvm.lifetime.end.p0(i64 4, ptr nonnull %14) #15
  call void @llvm.lifetime.end.p0(i64 4, ptr nonnull %13) #15
  call void @llvm.lifetime.end.p0(i64 4, ptr nonnull %12) #15
  call void @llvm.lifetime.end.p0(i64 4, ptr nonnull %11) #15
  call void @llvm.lifetime.end.p0(i64 4, ptr nonnull %10) #15
  resume { ptr, i32 } %.pn
}